; Function Attrs: null_pointer_is_valid sspstrong uwtable
define hidden noundef zeroext i1 @cf_goto_framenum(ptr noundef captures(address_is_null) %0) local_unnamed_addr #1 {
  %2 = getelementptr inbounds nuw i8, ptr %0, i64 368
  %3 = load ptr, ptr %2, align 8
  %.not = icmp eq ptr %3, null
  br i1 %.not, label %15, label %4

4:                                                ; preds = %1
  %5 = load ptr, ptr %3, align 8
  %6 = getelementptr inbounds nuw i8, ptr %5, i64 16
  %7 = load i32, ptr %6, align 8
  %8 = icmp eq i32 %7, 35
  br i1 %8, label %9, label %15

9:                                                ; preds = %4
  %10 = getelementptr inbounds nuw i8, ptr %3, i64 48
  %11 = load ptr, ptr %10, align 8
  %12 = tail call i32 @fvalue_get_uinteger(ptr noundef %11)
  %.not9 = icmp eq i32 %12, 0
  br i1 %.not9, label %15, label %13

13:                                               ; preds = %9
  %14 = tail call zeroext i1 @cf_goto_frame(ptr noundef %0, i32 noundef %12, i1 noundef zeroext true)
  br label %15

15:                                               ; preds = %1, %9, %4, %13
  %.0 = phi i1 [ %14, %13 ], [ false, %4 ], [ false, %9 ], [ false, %1 ]
  ret i1 %.0
}